target datalayout = "e-m:e-p270:32:32-p271:32:32-p272:64:64-i64:64-i128:128-f80:128-n8:16:32:64-S128"
target triple = "x86_64-pc-linux-gnu"

@_ZN2os5Linux16_numa_move_pagesE = hidden global ptr null, align 8

; Function Attrs: mustprogress nounwind uwtable
define linkonce_odr hidden noundef i64 @_ZN2os5Linux15numa_move_pagesEimPPvPKiPii(i32 noundef %0, i64 noundef %1, ptr noundef %2, ptr noundef %3, ptr noundef %4, i32 noundef %5) #1 comdat align 2 {
  %7 = alloca i32, align 4
  %8 = alloca i64, align 8
  %9 = alloca ptr, align 8
  %10 = alloca ptr, align 8
  %11 = alloca ptr, align 8
  %12 = alloca i32, align 4
  store i32 %0, ptr %7, align 4
  store i64 %1, ptr %8, align 8
  store ptr %2, ptr %9, align 8
  store ptr %3, ptr %10, align 8
  store ptr %4, ptr %11, align 8
  store i32 %5, ptr %12, align 4
  %13 = load ptr, ptr @_ZN2os5Linux16_numa_move_pagesE, align 8
  %14 = icmp ne ptr %13, null
  br i1 %14, label %15, label %24

15:                                               ; preds = %6
  %16 = load ptr, ptr @_ZN2os5Linux16_numa_move_pagesE, align 8
  %17 = load i32, ptr %7, align 4
  %18 = load i64, ptr %8, align 8
  %19 = load ptr, ptr %9, align 8
  %20 = load ptr, ptr %10, align 8
  %21 = load ptr, ptr %11, align 8
  %22 = load i32, ptr %12, align 4
  %23 = call noundef i64 %16(i32 noundef %17, i64 noundef %18, ptr noundef %19, ptr noundef %20, ptr noundef %21, i32 noundef %22)
  br label %25

24:                                               ; preds = %6
  br label %25

25:                                               ; preds = %24, %15
  %26 = phi i64 [ %23, %15 ], [ -1, %24 ]
  ret i64 %26
}

; Function Attrs: mustprogress nounwind uwtable
define hidden noundef i32 @_ZN2os29numa_get_group_id_for_addressEPKv(ptr noundef %0) #1 align 2 {
  %2 = alloca i32, align 4
  %3 = alloca ptr, align 8
  %4 = alloca ptr, align 8
  %5 = alloca i32, align 4
  store ptr %0, ptr %3, align 8
  store ptr %3, ptr %4, align 8
  store i32 -1, ptr %5, align 4
  %6 = load ptr, ptr %4, align 8
  %7 = call noundef i64 @_ZN2os5Linux15numa_move_pagesEimPPvPKiPii(i32 noundef 0, i64 noundef 1, ptr noundef %6, ptr noundef null, ptr noundef %5, i32 noundef 0)
  %8 = icmp eq i64 %7, -1
  br i1 %8, label %9, label %10

9:                                                ; preds = %1
  store i32 -1, ptr %2, align 4
  br label %16

10:                                               ; preds = %1
  %11 = load i32, ptr %5, align 4
  %12 = icmp slt i32 %11, 0
  br i1 %12, label %13, label %14

13:                                               ; preds = %10
  store i32 -1, ptr %2, align 4
  br label %16

14:                                               ; preds = %10
  %15 = load i32, ptr %5, align 4
  store i32 %15, ptr %2, align 4
  br label %16

16:                                               ; preds = %14, %13, %9
  %17 = load i32, ptr %2, align 4
  ret i32 %17
}