; Function Attrs: mustprogress nounwind uwtable
define hidden noundef range(i32 -1, -2147483648) i32 @_ZN2os29numa_get_group_id_for_addressEPKv(ptr noundef %0) local_unnamed_addr #0 align 2 {
  %2 = alloca ptr, align 8
  %3 = alloca i32, align 4
  store ptr %0, ptr %2, align 8
  store i32 -1, ptr %3, align 4
  %4 = load ptr, ptr @_ZN2os5Linux16_numa_move_pagesE, align 8
  %.not.i = icmp eq ptr %4, null
  br i1 %.not.i, label %_ZN2os5Linux15numa_move_pagesEimPPvPKiPii.exit.thread, label %_ZN2os5Linux15numa_move_pagesEimPPvPKiPii.exit

_ZN2os5Linux15numa_move_pagesEimPPvPKiPii.exit:   ; preds = %1
  %5 = call noundef i64 %4(i32 noundef 0, i64 noundef 1, ptr noundef nonnull %2, ptr noundef null, ptr noundef nonnull %3, i32 noundef 0) #26
  %6 = icmp eq i64 %5, -1
  %7 = load i32, ptr %3, align 4
  %. = call i32 @llvm.smax.i32(i32 %7, i32 -1)
  br i1 %6, label %_ZN2os5Linux15numa_move_pagesEimPPvPKiPii.exit.thread, label %8

_ZN2os5Linux15numa_move_pagesEimPPvPKiPii.exit.thread: ; preds = %1, %_ZN2os5Linux15numa_move_pagesEimPPvPKiPii.exit
  br label %8

8:                                                ; preds = %_ZN2os5Linux15numa_move_pagesEimPPvPKiPii.exit, %_ZN2os5Linux15numa_move_pagesEimPPvPKiPii.exit.thread
  %9 = phi i32 [ -1, %_ZN2os5Linux15numa_move_pagesEimPPvPKiPii.exit.thread ], [ %., %_ZN2os5Linux15numa_move_pagesEimPPvPKiPii.exit ]
  ret i32 %9
}